target datalayout = "e-m:e-p270:32:32-p271:32:32-p272:64:64-i64:64-i128:128-f80:128-n8:16:32:64-S128"
target triple = "x86_64-pc-linux-gnu"

%struct.hpdata_s = type { ptr, i64, i8, i8, i8, i8, i8, %struct.nstime_t, i8, i8, i8, i8, i8, %union.anon, %struct.anon.0, %struct.anon.1, i64, i64, [8 x i64], i64, [8 x i64] }
%struct.nstime_t = type { i64 }
%union.anon = type { %struct.hpdata_age_heap_link_t }
%struct.hpdata_age_heap_link_t = type { %struct.phn_link_s }
%struct.phn_link_s = type { ptr, ptr, ptr }
%struct.anon.0 = type { ptr, ptr }
%struct.anon.1 = type { ptr, ptr }

; Function Attrs: inlinehint nounwind uwtable
define internal void @hpdata_assert_consistent(ptr noundef %0) #3 {
  %2 = alloca ptr, align 8
  store ptr %0, ptr %2, align 8, !tbaa !15
  br label %3

3:                                                ; preds = %1
  br label %4

4:                                                ; preds = %3
  ret void
}

; Function Attrs: inlinehint nounwind uwtable
define internal void @fb_init(ptr noundef %0, i64 noundef %1) #3 {
  %3 = alloca ptr, align 8
  %4 = alloca i64, align 8
  %5 = alloca i64, align 8
  store ptr %0, ptr %3, align 8, !tbaa !43
  store i64 %1, ptr %4, align 8, !tbaa !14
  call void @llvm.lifetime.start.p0(i64 8, ptr %5) #7
  %6 = load i64, ptr %4, align 8, !tbaa !14
  %7 = udiv i64 %6, 64
  %8 = load i64, ptr %4, align 8, !tbaa !14
  %9 = urem i64 %8, 64
  %10 = icmp eq i64 %9, 0
  %11 = select i1 %10, i32 0, i32 1
  %12 = sext i32 %11 to i64
  %13 = add i64 %7, %12
  store i64 %13, ptr %5, align 8, !tbaa !14
  %14 = load ptr, ptr %3, align 8, !tbaa !43
  %15 = load i64, ptr %5, align 8, !tbaa !14
  %16 = mul i64 %15, 8
  call void @llvm.memset.p0.i64(ptr align 8 %14, i8 0, i64 %16, i1 false)
  call void @llvm.lifetime.end.p0(i64 8, ptr %5) #7
  ret void
}

; Function Attrs: inlinehint nounwind uwtable
define internal void @hpdata_longest_free_range_set(ptr noundef %0, i64 noundef %1) #3 {
  %3 = alloca ptr, align 8
  %4 = alloca i64, align 8
  store ptr %0, ptr %3, align 8, !tbaa !15
  store i64 %1, ptr %4, align 8, !tbaa !14
  br label %5

5:                                                ; preds = %2
  br label %6

6:                                                ; preds = %5
  %7 = load i64, ptr %4, align 8, !tbaa !14
  %8 = load ptr, ptr %3, align 8, !tbaa !15
  %9 = getelementptr inbounds nuw %struct.hpdata_s, ptr %8, i32 0, i32 16
  store i64 %7, ptr %9, align 8, !tbaa !42
  ret void
}

; Function Attrs: inlinehint nounwind uwtable
define internal void @hpdata_age_set(ptr noundef %0, i64 noundef %1) #3 {
  %3 = alloca ptr, align 8
  %4 = alloca i64, align 8
  store ptr %0, ptr %3, align 8, !tbaa !15
  store i64 %1, ptr %4, align 8, !tbaa !14
  %5 = load i64, ptr %4, align 8, !tbaa !14
  %6 = load ptr, ptr %3, align 8, !tbaa !15
  %7 = getelementptr inbounds nuw %struct.hpdata_s, ptr %6, i32 0, i32 1
  store i64 %5, ptr %7, align 8, !tbaa !41
  ret void
}

; Function Attrs: inlinehint nounwind uwtable
define internal void @hpdata_addr_set(ptr noundef %0, ptr noundef %1) #3 {
  %3 = alloca ptr, align 8
  %4 = alloca ptr, align 8
  store ptr %0, ptr %3, align 8, !tbaa !15
  store ptr %1, ptr %4, align 8, !tbaa !4
  br label %5

5:                                                ; preds = %2
  br label %6

6:                                                ; preds = %5
  %7 = load ptr, ptr %4, align 8, !tbaa !4
  %8 = load ptr, ptr %3, align 8, !tbaa !15
  %9 = getelementptr inbounds nuw %struct.hpdata_s, ptr %8, i32 0, i32 0
  store ptr %7, ptr %9, align 8, !tbaa !40
  ret void
}

; Function Attrs: nounwind uwtable
define hidden void @je_hpdata_init(ptr noundef %0, ptr noundef %1, i64 noundef %2) #0 {
  %4 = alloca ptr, align 8
  %5 = alloca ptr, align 8
  %6 = alloca i64, align 8
  store ptr %0, ptr %4, align 8, !tbaa !15
  store ptr %1, ptr %5, align 8, !tbaa !4
  store i64 %2, ptr %6, align 8, !tbaa !14
  %7 = load ptr, ptr %4, align 8, !tbaa !15
  %8 = load ptr, ptr %5, align 8, !tbaa !4
  call void @hpdata_addr_set(ptr noundef %7, ptr noundef %8)
  %9 = load ptr, ptr %4, align 8, !tbaa !15
  %10 = load i64, ptr %6, align 8, !tbaa !14
  call void @hpdata_age_set(ptr noundef %9, i64 noundef %10)
  %11 = load ptr, ptr %4, align 8, !tbaa !15
  %12 = getelementptr inbounds nuw %struct.hpdata_s, ptr %11, i32 0, i32 2
  store i8 0, ptr %12, align 8, !tbaa !25
  %13 = load ptr, ptr %4, align 8, !tbaa !15
  %14 = getelementptr inbounds nuw %struct.hpdata_s, ptr %13, i32 0, i32 3
  store i8 1, ptr %14, align 1, !tbaa !29
  %15 = load ptr, ptr %4, align 8, !tbaa !15
  %16 = getelementptr inbounds nuw %struct.hpdata_s, ptr %15, i32 0, i32 4
  store i8 0, ptr %16, align 2, !tbaa !30
  %17 = load ptr, ptr %4, align 8, !tbaa !15
  %18 = getelementptr inbounds nuw %struct.hpdata_s, ptr %17, i32 0, i32 5
  store i8 0, ptr %18, align 1, !tbaa !31
  %19 = load ptr, ptr %4, align 8, !tbaa !15
  %20 = getelementptr inbounds nuw %struct.hpdata_s, ptr %19, i32 0, i32 6
  store i8 0, ptr %20, align 4, !tbaa !32
  %21 = load ptr, ptr %4, align 8, !tbaa !15
  %22 = getelementptr inbounds nuw %struct.hpdata_s, ptr %21, i32 0, i32 8
  store i8 0, ptr %22, align 8, !tbaa !33
  %23 = load ptr, ptr %4, align 8, !tbaa !15
  %24 = getelementptr inbounds nuw %struct.hpdata_s, ptr %23, i32 0, i32 9
  store i8 0, ptr %24, align 1, !tbaa !34
  %25 = load ptr, ptr %4, align 8, !tbaa !15
  %26 = getelementptr inbounds nuw %struct.hpdata_s, ptr %25, i32 0, i32 10
  store i8 0, ptr %26, align 2, !tbaa !35
  %27 = load ptr, ptr %4, align 8, !tbaa !15
  %28 = getelementptr inbounds nuw %struct.hpdata_s, ptr %27, i32 0, i32 11
  store i8 0, ptr %28, align 1, !tbaa !36
  %29 = load ptr, ptr %4, align 8, !tbaa !15
  %30 = getelementptr inbounds nuw %struct.hpdata_s, ptr %29, i32 0, i32 12
  store i8 0, ptr %30, align 4, !tbaa !37
  %31 = load ptr, ptr %4, align 8, !tbaa !15
  call void @hpdata_longest_free_range_set(ptr noundef %31, i64 noundef 512)
  %32 = load ptr, ptr %4, align 8, !tbaa !15
  %33 = getelementptr inbounds nuw %struct.hpdata_s, ptr %32, i32 0, i32 17
  store i64 0, ptr %33, align 8, !tbaa !38
  %34 = load ptr, ptr %4, align 8, !tbaa !15
  %35 = getelementptr inbounds nuw %struct.hpdata_s, ptr %34, i32 0, i32 18
  %36 = getelementptr inbounds [8 x i64], ptr %35, i64 0, i64 0
  call void @fb_init(ptr noundef %36, i64 noundef 512)
  %37 = load ptr, ptr %4, align 8, !tbaa !15
  %38 = getelementptr inbounds nuw %struct.hpdata_s, ptr %37, i32 0, i32 19
  store i64 0, ptr %38, align 8, !tbaa !39
  %39 = load ptr, ptr %4, align 8, !tbaa !15
  %40 = getelementptr inbounds nuw %struct.hpdata_s, ptr %39, i32 0, i32 20
  %41 = getelementptr inbounds [8 x i64], ptr %40, i64 0, i64 0
  call void @fb_init(ptr noundef %41, i64 noundef 512)
  %42 = load ptr, ptr %4, align 8, !tbaa !15
  call void @hpdata_assert_consistent(ptr noundef %42)
  ret void
}